target datalayout = "e-m:e-p270:32:32-p271:32:32-p272:64:64-i64:64-i128:128-f80:128-n8:16:32:64-S128"
target triple = "x86_64-pc-linux-gnu"

@.str.11 = private unnamed_addr constant [4 x i8] c"idx\00", align 1
@.str.12 = private unnamed_addr constant [5 x i8] c"pack\00", align 1

; Function Attrs: nounwind uwtable
define dso_local i32 @cmp_idx_or_pack_name(ptr noundef %0, ptr noundef %1) #0 {
  %3 = alloca i32, align 4
  %4 = alloca ptr, align 8
  %5 = alloca ptr, align 8
  store ptr %0, ptr %4, align 8, !tbaa !9
  store ptr %1, ptr %5, align 8, !tbaa !9
  br label %6

6:                                                ; preds = %21, %2
  %7 = load ptr, ptr %5, align 8, !tbaa !9
  %8 = load i8, ptr %7, align 1, !tbaa !49
  %9 = sext i8 %8 to i32
  %10 = icmp ne i32 %9, 0
  br i1 %10, label %11, label %19

11:                                               ; preds = %6
  %12 = load ptr, ptr %5, align 8, !tbaa !9
  %13 = load i8, ptr %12, align 1, !tbaa !49
  %14 = sext i8 %13 to i32
  %15 = load ptr, ptr %4, align 8, !tbaa !9
  %16 = load i8, ptr %15, align 1, !tbaa !49
  %17 = sext i8 %16 to i32
  %18 = icmp eq i32 %14, %17
  br label %19

19:                                               ; preds = %11, %6
  %20 = phi i1 [ false, %6 ], [ %18, %11 ]
  br i1 %20, label %21, label %26

21:                                               ; preds = %19
  %22 = load ptr, ptr %5, align 8, !tbaa !9
  %23 = getelementptr inbounds nuw i8, ptr %22, i32 1
  store ptr %23, ptr %5, align 8, !tbaa !9
  %24 = load ptr, ptr %4, align 8, !tbaa !9
  %25 = getelementptr inbounds nuw i8, ptr %24, i32 1
  store ptr %25, ptr %4, align 8, !tbaa !9
  br label %6, !llvm.loop !96

26:                                               ; preds = %19
  %27 = load ptr, ptr %5, align 8, !tbaa !9
  %28 = call i32 @strcmp(ptr noundef %27, ptr noundef @.str.11) #12
  %29 = icmp ne i32 %28, 0
  br i1 %29, label %35, label %30

30:                                               ; preds = %26
  %31 = load ptr, ptr %4, align 8, !tbaa !9
  %32 = call i32 @strcmp(ptr noundef %31, ptr noundef @.str.12) #12
  %33 = icmp ne i32 %32, 0
  br i1 %33, label %35, label %34

34:                                               ; preds = %30
  store i32 0, ptr %3, align 4
  br label %39

35:                                               ; preds = %30, %26
  %36 = load ptr, ptr %4, align 8, !tbaa !9
  %37 = load ptr, ptr %5, align 8, !tbaa !9
  %38 = call i32 @strcmp(ptr noundef %36, ptr noundef %37) #12
  store i32 %38, ptr %3, align 4
  br label %39

39:                                               ; preds = %35, %34
  %40 = load i32, ptr %3, align 4
  ret i32 %40
}