; Function Attrs: nofree nounwind memory(argmem: read) uwtable
define dso_local i32 @cmp_idx_or_pack_name(ptr noundef readonly captures(none) %0, ptr noundef readonly captures(none) %1) local_unnamed_addr #9 {
  %3 = load i8, ptr %1, align 1, !tbaa !43
  %.not14 = icmp eq i8 %3, 0
  br i1 %.not14, label %.critedge, label %.lr.ph

.lr.ph:                                           ; preds = %2, %7
  %4 = phi i8 [ %10, %7 ], [ %3, %2 ]
  %.016 = phi ptr [ %8, %7 ], [ %1, %2 ]
  %.0915 = phi ptr [ %9, %7 ], [ %0, %2 ]
  %5 = load i8, ptr %.0915, align 1, !tbaa !43
  %6 = icmp eq i8 %4, %5
  br i1 %6, label %7, label %.critedge

7:                                                ; preds = %.lr.ph
  %8 = getelementptr inbounds nuw i8, ptr %.016, i64 1
  %9 = getelementptr inbounds nuw i8, ptr %.0915, i64 1
  %10 = load i8, ptr %8, align 1, !tbaa !43
  %.not = icmp eq i8 %10, 0
  br i1 %.not, label %.critedge, label %.lr.ph, !llvm.loop !86

.critedge:                                        ; preds = %.lr.ph, %7, %2
  %.09.lcssa = phi ptr [ %0, %2 ], [ %9, %7 ], [ %.0915, %.lr.ph ]
  %.0.lcssa = phi ptr [ %1, %2 ], [ %8, %7 ], [ %.016, %.lr.ph ]
  %11 = tail call i32 @strcmp(ptr noundef nonnull dereferenceable(1) %.0.lcssa, ptr noundef nonnull dereferenceable(4) @.str.11) #25
  %.not12 = icmp eq i32 %11, 0
  br i1 %.not12, label %12, label %14

12:                                               ; preds = %.critedge
  %13 = tail call i32 @strcmp(ptr noundef nonnull dereferenceable(1) %.09.lcssa, ptr noundef nonnull dereferenceable(5) @.str.12) #25
  %.not13 = icmp eq i32 %13, 0
  br i1 %.not13, label %16, label %14

14:                                               ; preds = %12, %.critedge
  %15 = tail call i32 @strcmp(ptr noundef nonnull dereferenceable(1) %.09.lcssa, ptr noundef nonnull dereferenceable(1) %.0.lcssa) #25
  br label %16

16:                                               ; preds = %12, %14
  %.010 = phi i32 [ %15, %14 ], [ 0, %12 ]
  ret i32 %.010
}